; Function Attrs: nounwind uwtable
define internal noundef ptr @lxb_html_tokenizer_state_script_data_double_escaped_end_tag_open(ptr nocapture noundef %0, ptr noundef readonly %1, ptr noundef readnone %2) #1 {
  %4 = load i8, ptr %1, align 1
  %5 = zext i8 %4 to i64
  %6 = getelementptr inbounds [256 x i64], ptr @lexbor_str_res_alpha_character, i64 0, i64 %5
  %7 = load i64, ptr %6, align 8
  %.not = icmp eq i64 %7, 255
  %.phi.trans.insert = getelementptr inbounds i8, ptr %0, i64 136
  %.pre = load ptr, ptr %.phi.trans.insert, align 8
  br i1 %.not, label %._crit_edge, label %8

8:                                                ; preds = %3
  %9 = getelementptr inbounds i8, ptr %.pre, i64 1
  %10 = getelementptr inbounds i8, ptr %0, i64 128
  %11 = load ptr, ptr %10, align 8
  %12 = ptrtoint ptr %9 to i64
  %13 = ptrtoint ptr %11 to i64
  %14 = sub i64 %12, %13
  %15 = getelementptr inbounds i8, ptr %0, i64 200
  store i64 %14, ptr %15, align 8
  br label %._crit_edge

._crit_edge:                                      ; preds = %3, %8
  %storemerge = phi ptr [ @lxb_html_tokenizer_state_script_data_double_escape_end, %8 ], [ @lxb_html_tokenizer_state_script_data_double_escaped, %3 ]
  store ptr %storemerge, ptr %0, align 8
  %16 = getelementptr inbounds i8, ptr %0, i64 136
  %17 = getelementptr inbounds i8, ptr %.pre, i64 1
  %18 = getelementptr inbounds i8, ptr %0, i64 144
  %19 = load ptr, ptr %18, align 8
  %20 = icmp ugt ptr %17, %19
  br i1 %20, label %21, label %35

21:                                               ; preds = %._crit_edge
  %22 = getelementptr inbounds i8, ptr %0, i64 128
  %23 = load ptr, ptr %22, align 8
  %24 = ptrtoint ptr %23 to i64
  %25 = ptrtoint ptr %19 to i64
  %26 = add i64 %25, 4097
  %27 = sub i64 %26, %24
  %28 = tail call ptr @lexbor_realloc(ptr noundef %23, i64 noundef %27) #6
  store ptr %28, ptr %22, align 8
  %29 = icmp eq ptr %28, null
  br i1 %29, label %lxb_html_tokenizer_temp_append.exit, label %lxb_html_tokenizer_temp_realloc.exit.thread.i

lxb_html_tokenizer_temp_realloc.exit.thread.i:    ; preds = %21
  %30 = ptrtoint ptr %.pre to i64
  %31 = sub i64 %30, %24
  %32 = getelementptr inbounds i8, ptr %28, i64 %31
  %33 = getelementptr inbounds i8, ptr %28, i64 %27
  store ptr %33, ptr %18, align 8
  br label %35

lxb_html_tokenizer_temp_append.exit:              ; preds = %21
  %34 = getelementptr inbounds i8, ptr %0, i64 232
  store i32 2, ptr %34, align 8
  br label %38

35:                                               ; preds = %._crit_edge, %lxb_html_tokenizer_temp_realloc.exit.thread.i
  %36 = phi ptr [ %32, %lxb_html_tokenizer_temp_realloc.exit.thread.i ], [ %.pre, %._crit_edge ]
  store i8 47, ptr %36, align 1
  %37 = getelementptr inbounds i8, ptr %36, i64 1
  store ptr %37, ptr %16, align 8
  br label %38

38:                                               ; preds = %lxb_html_tokenizer_temp_append.exit, %35
  %39 = phi ptr [ %1, %35 ], [ %2, %lxb_html_tokenizer_temp_append.exit ]
  ret ptr %39
}